(dp0
I00
(dp1
cnumpy.core.multiarray
scalar
p2
(cnumpy
dtype
p3
(S'f8'
p4
I0
I1
tp5
Rp6
(I3
S'<'
p7
NNNI-1
I-1
I0
tp8
bS'\x00\x00\x00\x00\x00\x00\xe8?'
p9
tp10
Rp11
(dp12
I26
(dp13
I35
(lp14
((I26
I35
I00
g11
tp15
I502
I36
I00
tp16
a(g15
I502
I36
I00
tp17
a(g15
I502
I36
I00
tp18
a(g15
I502
I36
I00
tp19
a(g15
I502
I36
I00
tp20
a(g15
I502
I36
I00
tp21
a(g15
I502
I36
I00
tp22
a(g15
I502
I36
I00
tp23
a(g15
I502
I1
I01
tp24
a(g15
I502
I36
I00
tp25
a(g15
I502
I36
I00
tp26
a(g15
I502
I36
I00
tp27
a(g15
I699
I0
I01
tp28
a(g15
I502
I36
I00
tp29
a(g15
I252
I0
I01
tp30
a(g15
I699
I0
I01
tp31
a(g15
I502
I36
I00
tp32
a(g15
I3
I0
I01
tp33
a(g15
I502
I36
I00
tp34
a(g15
I502
I36
I00
tp35
a(g15
I502
I36
I00
tp36
a(g15
I502
I36
I00
tp37
a(g15
I502
I36
I00
tp38
a(g15
I502
I36
I00
tp39
a(g15
I502
I36
I00
tp40
a(g15
I502
I36
I00
tp41
a(g15
I502
I36
I00
tp42
a(g15
I502
I36
I00
tp43
a(g15
I502
I36
I00
tp44
a(g15
I502
I36
I00
tp45
asI40
(lp46
((I26
I40
I00
g11
tp47
I572
I41
I00
tp48
a(g47
I572
I41
I00
tp49
a(g47
I699
I0
I01
tp50
a(g47
I699
I0
I01
tp51
a(g47
I572
I41
I00
tp52
a(g47
I572
I41
I00
tp53
a(g47
I572
I41
I00
tp54
a(g47
I572
I1
I01
tp55
a(g47
I572
I39
I01
tp56
a(g47
I572
I41
I00
tp57
a(g47
I572
I41
I00
tp58
a(g47
I572
I41
I00
tp59
a(g47
I572
I41
I00
tp60
a(g47
I572
I41
I00
tp61
a(g47
I699
I0
I01
tp62
a(g47
I572
I41
I00
tp63
a(g47
I572
I41
I00
tp64
a(g47
I572
I41
I00
tp65
a(g47
I572
I1
I01
tp66
a(g47
I572
I41
I00
tp67
a(g47
I572
I41
I00
tp68
a(g47
I572
I41
I00
tp69
a(g47
I572
I41
I00
tp70
a(g47
I572
I41
I00
tp71
a(g47
I572
I41
I00
tp72
a(g47
I572
I41
I00
tp73
a(g47
I572
I41
I00
tp74
a(g47
I572
I41
I00
tp75
a(g47
I572
I41
I00
tp76
a(g47
I572
I41
I00
tp77
asI10
(lp78
((I26
I10
I00
g11
tp79
I152
I11
I00
tp80
a(g79
I152
I11
I00
tp81
a(g79
I152
I11
I00
tp82
a(g79
I152
I11
I00
tp83
a(g79
I152
I11
I00
tp84
a(g79
I152
I1
I01
tp85
a(g79
I152
I11
I00
tp86
a(g79
I152
I11
I00
tp87
a(g79
I152
I11
I00
tp88
a(g79
I152
I11
I00
tp89
a(g79
I152
I11
I00
tp90
a(g79
I152
I11
I00
tp91
a(g79
I152
I11
I00
tp92
a(g79
I152
I11
I00
tp93
a(g79
I152
I11
I00
tp94
a(g79
I152
I11
I00
tp95
a(g79
I152
I11
I00
tp96
a(g79
I152
I11
I00
tp97
a(g79
I152
I11
I00
tp98
a(g79
I0
I0
I01
tp99
a(g79
I699
I0
I01
tp100
a(g79
I152
I11
I00
tp101
a(g79
I0
I0
I01
tp102
a(g79
I699
I0
I01
tp103
a(g79
I152
I11
I00
tp104
a(g79
I152
I11
I00
tp105
a(g79
I152
I11
I00
tp106
a(g79
I152
I11
I00
tp107
a(g79
I4
I0
I01
tp108
a(g79
I77
I0
I01
tp109
asI15
(lp110
((I26
I15
I00
g11
tp111
I222
I16
I00
tp112
a(g111
I222
I16
I00
tp113
a(g111
I222
I16
I00
tp114
a(g111
I222
I1
I01
tp115
a(g111
I222
I16
I00
tp116
a(g111
I222
I16
I00
tp117
a(g111
I222
I16
I00
tp118
a(g111
I112
I0
I01
tp119
a(g111
I222
I16
I00
tp120
a(g111
I3
I0
I01
tp121
a(g111
I699
I0
I01
tp122
a(g111
I112
I0
I01
tp123
a(g111
I222
I16
I00
tp124
a(g111
I222
I16
I00
tp125
a(g111
I222
I16
I00
tp126
a(g111
I222
I16
I00
tp127
a(g111
I222
I16
I00
tp128
a(g111
I222
I16
I00
tp129
a(g111
I222
I16
I00
tp130
a(g111
I222
I16
I00
tp131
a(g111
I222
I16
I00
tp132
a(g111
I222
I16
I00
tp133
a(g111
I222
I16
I00
tp134
a(g111
I222
I16
I00
tp135
a(g111
I222
I16
I00
tp136
a(g111
I4
I0
I01
tp137
a(g111
I222
I16
I00
tp138
a(g111
I222
I1
I01
tp139
a(g111
I222
I16
I00
tp140
a(g111
I222
I16
I00
tp141
asI20
(lp142
((I26
I20
I00
g11
tp143
I292
I21
I00
tp144
a(g143
I292
I21
I00
tp145
a(g143
I1
I0
I01
tp146
a(g143
I292
I21
I00
tp147
a(g143
I292
I20
I01
tp148
a(g143
I292
I21
I00
tp149
a(g143
I292
I21
I00
tp150
a(g143
I292
I1
I01
tp151
a(g143
I147
I0
I01
tp152
a(g143
I147
I0
I01
tp153
a(g143
I292
I21
I00
tp154
a(g143
I292
I21
I00
tp155
a(g143
I292
I21
I00
tp156
a(g143
I0
I0
I01
tp157
a(g143
I292
I21
I00
tp158
a(g143
I292
I21
I00
tp159
a(g143
I292
I21
I00
tp160
a(g143
I292
I21
I00
tp161
a(g143
I292
I21
I00
tp162
a(g143
I292
I21
I00
tp163
a(g143
I699
I0
I01
tp164
a(g143
I292
I21
I00
tp165
a(g143
I292
I21
I00
tp166
a(g143
I699
I0
I01
tp167
a(g143
I292
I21
I00
tp168
a(g143
I292
I21
I00
tp169
a(g143
I292
I21
I00
tp170
a(g143
I292
I21
I00
tp171
a(g143
I292
I21
I00
tp172
a(g143
I699
I0
I01
tp173
asI25
(lp174
((I26
I25
I00
g11
tp175
I362
I26
I00
tp176
a(g175
I362
I26
I00
tp177
a(g175
I0
I0
I01
tp178
a(g175
I4
I0
I01
tp179
a(g175
I362
I26
I00
tp180
a(g175
I362
I26
I00
tp181
a(g175
I182
I0
I01
tp182
a(g175
I0
I0
I01
tp183
a(g175
I362
I26
I00
tp184
a(g175
I362
I26
I00
tp185
a(g175
I362
I26
I00
tp186
a(g175
I362
I26
I00
tp187
a(g175
I362
I26
I00
tp188
a(g175
I362
I26
I00
tp189
a(g175
I362
I26
I00
tp190
a(g175
I699
I0
I01
tp191
a(g175
I362
I26
I00
tp192
a(g175
I362
I1
I01
tp193
a(g175
I362
I26
I00
tp194
a(g175
I4
I0
I01
tp195
a(g175
I699
I0
I01
tp196
a(g175
I182
I0
I01
tp197
a(g175
I362
I26
I00
tp198
a(g175
I362
I26
I00
tp199
a(g175
I362
I26
I00
tp200
a(g175
I362
I26
I00
tp201
a(g175
I699
I0
I01
tp202
a(g175
I699
I0
I01
tp203
a(g175
I362
I26
I00
tp204
a(g175
I362
I26
I00
tp205
asI30
(lp206
((I26
I30
I00
g11
tp207
I432
I31
I00
tp208
a(g207
I432
I31
I00
tp209
a(g207
I432
I31
I00
tp210
a(g207
I0
I0
I01
tp211
a(g207
I432
I31
I00
tp212
a(g207
I217
I0
I01
tp213
a(g207
I432
I31
I00
tp214
a(g207
I432
I31
I00
tp215
a(g207
I217
I0
I01
tp216
a(g207
I217
I0
I01
tp217
a(g207
I217
I0
I01
tp218
a(g207
I699
I0
I01
tp219
a(g207
I217
I0
I01
tp220
a(g207
I432
I31
I00
tp221
a(g207
I7
I0
I01
tp222
a(g207
I432
I31
I00
tp223
a(g207
I432
I31
I00
tp224
a(g207
I432
I31
I00
tp225
a(g207
I432
I1
I01
tp226
a(g207
I432
I31
I00
tp227
a(g207
I432
I31
I00
tp228
a(g207
I432
I31
I00
tp229
a(g207
I432
I31
I00
tp230
a(g207
I432
I31
I00
tp231
a(g207
I699
I0
I01
tp232
a(g207
I432
I31
I00
tp233
a(g207
I432
I31
I00
tp234
a(g207
I432
I31
I00
tp235
a(g207
I432
I31
I00
tp236
a(g207
I432
I31
I00
tp237
asssg2
(g6
S'\x00\x00\x00\x00\x00\x00\xf0?'
p238
tp239
Rp240
(dp241
I26
(dp242
I35
(lp243
((I26
I35
I00
g240
tp244
I502
I36
I00
tp245
a(g244
I502
I36
I00
tp246
a(g244
I502
I36
I00
tp247
a(g244
I502
I36
I00
tp248
a(g244
I502
I36
I00
tp249
a(g244
I502
I1
I01
tp250
a(g244
I502
I36
I00
tp251
a(g244
I502
I36
I00
tp252
a(g244
I502
I36
I00
tp253
a(g244
I502
I36
I00
tp254
a(g244
I502
I36
I00
tp255
a(g244
I502
I36
I00
tp256
a(g244
I502
I36
I00
tp257
a(g244
I502
I36
I00
tp258
a(g244
I502
I36
I00
tp259
a(g244
I502
I36
I00
tp260
a(g244
I502
I36
I00
tp261
a(g244
I502
I36
I00
tp262
a(g244
I502
I36
I00
tp263
a(g244
I502
I36
I00
tp264
a(g244
I502
I36
I00
tp265
a(g244
I502
I36
I00
tp266
a(g244
I502
I36
I00
tp267
a(g244
I502
I36
I00
tp268
a(g244
I502
I36
I00
tp269
a(g244
I502
I36
I00
tp270
a(g244
I502
I36
I00
tp271
a(g244
I502
I36
I00
tp272
a(g244
I502
I36
I00
tp273
a(g244
I502
I36
I00
tp274
asI40
(lp275
((I26
I40
I00
g240
tp276
I572
I41
I00
tp277
a(g276
I572
I41
I00
tp278
a(g276
I572
I41
I00
tp279
a(g276
I572
I41
I00
tp280
a(g276
I572
I41
I00
tp281
a(g276
I572
I41
I00
tp282
a(g276
I572
I41
I00
tp283
a(g276
I572
I41
I00
tp284
a(g276
I572
I41
I00
tp285
a(g276
I572
I41
I00
tp286
a(g276
I572
I41
I00
tp287
a(g276
I572
I41
I00
tp288
a(g276
I572
I41
I00
tp289
a(g276
I572
I41
I00
tp290
a(g276
I572
I41
I00
tp291
a(g276
I572
I41
I00
tp292
a(g276
I572
I41
I00
tp293
a(g276
I572
I41
I00
tp294
a(g276
I572
I41
I00
tp295
a(g276
I572
I41
I00
tp296
a(g276
I572
I41
I00
tp297
a(g276
I572
I41
I00
tp298
a(g276
I572
I41
I00
tp299
a(g276
I572
I41
I00
tp300
a(g276
I572
I41
I00
tp301
a(g276
I572
I41
I00
tp302
a(g276
I572
I41
I00
tp303
a(g276
I572
I41
I00
tp304
a(g276
I572
I41
I00
tp305
a(g276
I572
I41
I00
tp306
asI10
(lp307
((I26
I10
I00
g240
tp308
I152
I11
I00
tp309
a(g308
I152
I11
I00
tp310
a(g308
I152
I11
I00
tp311
a(g308
I152
I11
I00
tp312
a(g308
I152
I11
I00
tp313
a(g308
I152
I11
I00
tp314
a(g308
I152
I11
I00
tp315
a(g308
I152
I11
I00
tp316
a(g308
I152
I11
I00
tp317
a(g308
I152
I11
I00
tp318
a(g308
I152
I11
I00
tp319
a(g308
I152
I11
I00
tp320
a(g308
I152
I11
I00
tp321
a(g308
I152
I11
I00
tp322
a(g308
I152
I11
I00
tp323
a(g308
I152
I11
I00
tp324
a(g308
I152
I11
I00
tp325
a(g308
I152
I11
I00
tp326
a(g308
I152
I11
I00
tp327
a(g308
I152
I11
I00
tp328
a(g308
I152
I11
I00
tp329
a(g308
I152
I11
I00
tp330
a(g308
I152
I11
I00
tp331
a(g308
I152
I11
I00
tp332
a(g308
I152
I11
I00
tp333
a(g308
I152
I11
I00
tp334
a(g308
I152
I11
I00
tp335
a(g308
I152
I11
I00
tp336
a(g308
I152
I11
I00
tp337
a(g308
I152
I11
I00
tp338
asI15
(lp339
((I26
I15
I00
g240
tp340
I222
I16
I00
tp341
a(g340
I222
I16
I00
tp342
a(g340
I222
I16
I00
tp343
a(g340
I222
I16
I00
tp344
a(g340
I222
I16
I00
tp345
a(g340
I222
I16
I00
tp346
a(g340
I222
I16
I00
tp347
a(g340
I222
I16
I00
tp348
a(g340
I222
I16
I00
tp349
a(g340
I222
I16
I00
tp350
a(g340
I222
I16
I00
tp351
a(g340
I222
I16
I00
tp352
a(g340
I222
I16
I00
tp353
a(g340
I222
I16
I00
tp354
a(g340
I222
I16
I00
tp355
a(g340
I222
I16
I00
tp356
a(g340
I222
I16
I00
tp357
a(g340
I222
I16
I00
tp358
a(g340
I222
I16
I00
tp359
a(g340
I222
I16
I00
tp360
a(g340
I222
I16
I00
tp361
a(g340
I222
I16
I00
tp362
a(g340
I222
I16
I00
tp363
a(g340
I222
I16
I00
tp364
a(g340
I222
I16
I00
tp365
a(g340
I222
I16
I00
tp366
a(g340
I222
I16
I00
tp367
a(g340
I222
I16
I00
tp368
a(g340
I222
I16
I00
tp369
a(g340
I222
I16
I00
tp370
asI20
(lp371
((I26
I20
I00
g240
tp372
I292
I21
I00
tp373
a(g372
I292
I21
I00
tp374
a(g372
I292
I21
I00
tp375
a(g372
I292
I21
I00
tp376
a(g372
I292
I21
I00
tp377
a(g372
I292
I21
I00
tp378
a(g372
I292
I21
I00
tp379
a(g372
I292
I21
I00
tp380
a(g372
I292
I21
I00
tp381
a(g372
I292
I21
I00
tp382
a(g372
I292
I21
I00
tp383
a(g372
I292
I21
I00
tp384
a(g372
I292
I21
I00
tp385
a(g372
I292
I21
I00
tp386
a(g372
I292
I21
I00
tp387
a(g372
I292
I21
I00
tp388
a(g372
I292
I21
I00
tp389
a(g372
I292
I21
I00
tp390
a(g372
I292
I21
I00
tp391
a(g372
I292
I21
I00
tp392
a(g372
I292
I21
I00
tp393
a(g372
I292
I21
I00
tp394
a(g372
I292
I21
I00
tp395
a(g372
I292
I21
I00
tp396
a(g372
I147
I0
I01
tp397
a(g372
I292
I21
I00
tp398
a(g372
I292
I21
I00
tp399
a(g372
I292
I21
I00
tp400
a(g372
I292
I21
I00
tp401
a(g372
I292
I21
I00
tp402
asI25
(lp403
((I26
I25
I00
g240
tp404
I362
I26
I00
tp405
a(g404
I362
I26
I00
tp406
a(g404
I362
I26
I00
tp407
a(g404
I362
I26
I00
tp408
a(g404
I362
I26
I00
tp409
a(g404
I362
I26
I00
tp410
a(g404
I362
I26
I00
tp411
a(g404
I362
I26
I00
tp412
a(g404
I362
I26
I00
tp413
a(g404
I362
I26
I00
tp414
a(g404
I362
I26
I00
tp415
a(g404
I362
I26
I00
tp416
a(g404
I362
I26
I00
tp417
a(g404
I362
I26
I00
tp418
a(g404
I362
I26
I00
tp419
a(g404
I362
I26
I00
tp420
a(g404
I362
I26
I00
tp421
a(g404
I362
I26
I00
tp422
a(g404
I362
I26
I00
tp423
a(g404
I362
I26
I00
tp424
a(g404
I362
I26
I00
tp425
a(g404
I362
I26
I00
tp426
a(g404
I362
I26
I00
tp427
a(g404
I362
I26
I00
tp428
a(g404
I362
I26
I00
tp429
a(g404
I362
I26
I00
tp430
a(g404
I362
I26
I00
tp431
a(g404
I362
I26
I00
tp432
a(g404
I362
I26
I00
tp433
a(g404
I362
I26
I00
tp434
asI30
(lp435
((I26
I30
I00
g240
tp436
I432
I31
I00
tp437
a(g436
I432
I31
I00
tp438
a(g436
I432
I31
I00
tp439
a(g436
I432
I31
I00
tp440
a(g436
I0
I0
I01
tp441
a(g436
I432
I31
I00
tp442
a(g436
I432
I31
I00
tp443
a(g436
I432
I31
I00
tp444
a(g436
I432
I31
I00
tp445
a(g436
I432
I31
I00
tp446
a(g436
I432
I31
I00
tp447
a(g436
I432
I31
I00
tp448
a(g436
I432
I31
I00
tp449
a(g436
I432
I31
I00
tp450
a(g436
I432
I31
I00
tp451
a(g436
I432
I31
I00
tp452
a(g436
I432
I31
I00
tp453
a(g436
I432
I31
I00
tp454
a(g436
I432
I31
I00
tp455
a(g436
I432
I31
I00
tp456
a(g436
I432
I31
I00
tp457
a(g436
I432
I31
I00
tp458
a(g436
I432
I31
I00
tp459
a(g436
I432
I31
I00
tp460
a(g436
I432
I31
I00
tp461
a(g436
I432
I31
I00
tp462
a(g436
I432
I31
I00
tp463
a(g436
I432
I31
I00
tp464
a(g436
I432
I31
I00
tp465
a(g436
I432
I31
I00
tp466
asssg2
(g6
S'\x00\x00\x00\x00\x00\x00\xf4?'
p467
tp468
Rp469
(dp470
I26
(dp471
I35
(lp472
((I26
I35
I00
g469
tp473
I502
I36
I00
tp474
a(g473
I502
I36
I00
tp475
a(g473
I502
I36
I00
tp476
a(g473
I502
I36
I00
tp477
a(g473
I502
I36
I00
tp478
a(g473
I502
I36
I00
tp479
a(g473
I502
I36
I00
tp480
a(g473
I502
I36
I00
tp481
a(g473
I502
I36
I00
tp482
a(g473
I502
I36
I00
tp483
a(g473
I502
I36
I00
tp484
a(g473
I502
I36
I00
tp485
a(g473
I502
I36
I00
tp486
a(g473
I502
I36
I00
tp487
a(g473
I502
I36
I00
tp488
a(g473
I502
I36
I00
tp489
a(g473
I502
I36
I00
tp490
a(g473
I502
I36
I00
tp491
a(g473
I502
I36
I00
tp492
a(g473
I502
I36
I00
tp493
a(g473
I502
I36
I00
tp494
a(g473
I502
I36
I00
tp495
a(g473
I502
I36
I00
tp496
a(g473
I502
I36
I00
tp497
a(g473
I502
I36
I00
tp498
a(g473
I502
I36
I00
tp499
a(g473
I502
I36
I00
tp500
a(g473
I502
I36
I00
tp501
a(g473
I502
I36
I00
tp502
a(g473
I502
I36
I00
tp503
asI40
(lp504
((I26
I40
I00
g469
tp505
I572
I41
I00
tp506
a(g505
I572
I41
I00
tp507
a(g505
I572
I41
I00
tp508
a(g505
I572
I41
I00
tp509
a(g505
I572
I41
I00
tp510
a(g505
I572
I41
I00
tp511
a(g505
I572
I41
I00
tp512
a(g505
I572
I41
I00
tp513
a(g505
I572
I41
I00
tp514
a(g505
I572
I41
I00
tp515
a(g505
I572
I41
I00
tp516
a(g505
I572
I41
I00
tp517
a(g505
I572
I41
I00
tp518
a(g505
I572
I41
I00
tp519
a(g505
I572
I41
I00
tp520
a(g505
I572
I41
I00
tp521
a(g505
I572
I41
I00
tp522
a(g505
I572
I41
I00
tp523
a(g505
I572
I41
I00
tp524
a(g505
I572
I41
I00
tp525
a(g505
I572
I41
I00
tp526
a(g505
I572
I41
I00
tp527
a(g505
I572
I41
I00
tp528
a(g505
I572
I41
I00
tp529
a(g505
I572
I41
I00
tp530
a(g505
I572
I41
I00
tp531
a(g505
I572
I41
I00
tp532
a(g505
I572
I41
I00
tp533
a(g505
I572
I41
I00
tp534
a(g505
I572
I41
I00
tp535
asI10
(lp536
((I26
I10
I00
g469
tp537
I152
I11
I00
tp538
a(g537
I152
I11
I00
tp539
a(g537
I152
I11
I00
tp540
a(g537
I152
I11
I00
tp541
a(g537
I152
I11
I00
tp542
a(g537
I152
I11
I00
tp543
a(g537
I152
I11
I00
tp544
a(g537
I152
I11
I00
tp545
a(g537
I152
I11
I00
tp546
a(g537
I152
I11
I00
tp547
a(g537
I152
I11
I00
tp548
a(g537
I152
I11
I00
tp549
a(g537
I152
I11
I00
tp550
a(g537
I152
I11
I00
tp551
a(g537
I152
I11
I00
tp552
a(g537
I152
I11
I00
tp553
a(g537
I152
I11
I00
tp554
a(g537
I152
I11
I00
tp555
a(g537
I152
I11
I00
tp556
a(g537
I152
I11
I00
tp557
a(g537
I152
I11
I00
tp558
a(g537
I152
I11
I00
tp559
a(g537
I152
I11
I00
tp560
a(g537
I152
I11
I00
tp561
a(g537
I152
I11
I00
tp562
a(g537
I152
I11
I00
tp563
a(g537
I152
I11
I00
tp564
a(g537
I152
I11
I00
tp565
a(g537
I152
I11
I00
tp566
a(g537
I152
I11
I00
tp567
asI15
(lp568
((I26
I15
I00
g469
tp569
I222
I16
I00
tp570
a(g569
I222
I16
I00
tp571
a(g569
I222
I16
I00
tp572
a(g569
I222
I16
I00
tp573
a(g569
I222
I16
I00
tp574
a(g569
I222
I16
I00
tp575
a(g569
I222
I16
I00
tp576
a(g569
I222
I16
I00
tp577
a(g569
I222
I16
I00
tp578
a(g569
I222
I16
I00
tp579
a(g569
I222
I16
I00
tp580
a(g569
I222
I16
I00
tp581
a(g569
I222
I16
I00
tp582
a(g569
I222
I16
I00
tp583
a(g569
I222
I16
I00
tp584
a(g569
I222
I16
I00
tp585
a(g569
I222
I16
I00
tp586
a(g569
I222
I16
I00
tp587
a(g569
I222
I16
I00
tp588
a(g569
I222
I16
I00
tp589
a(g569
I222
I16
I00
tp590
a(g569
I222
I16
I00
tp591
a(g569
I222
I16
I00
tp592
a(g569
I222
I16
I00
tp593
a(g569
I222
I16
I00
tp594
a(g569
I222
I16
I00
tp595
a(g569
I222
I16
I00
tp596
a(g569
I222
I16
I00
tp597
a(g569
I222
I16
I00
tp598
a(g569
I222
I16
I00
tp599
asI20
(lp600
((I26
I20
I00
g469
tp601
I292
I21
I00
tp602
a(g601
I292
I21
I00
tp603
a(g601
I292
I21
I00
tp604
a(g601
I292
I21
I00
tp605
a(g601
I292
I21
I00
tp606
a(g601
I292
I21
I00
tp607
a(g601
I292
I21
I00
tp608
a(g601
I292
I21
I00
tp609
a(g601
I292
I21
I00
tp610
a(g601
I292
I21
I00
tp611
a(g601
I292
I21
I00
tp612
a(g601
I292
I21
I00
tp613
a(g601
I292
I21
I00
tp614
a(g601
I292
I21
I00
tp615
a(g601
I292
I21
I00
tp616
a(g601
I292
I21
I00
tp617
a(g601
I292
I21
I00
tp618
a(g601
I292
I21
I00
tp619
a(g601
I292
I21
I00
tp620
a(g601
I292
I21
I00
tp621
a(g601
I292
I21
I00
tp622
a(g601
I292
I21
I00
tp623
a(g601
I292
I21
I00
tp624
a(g601
I292
I21
I00
tp625
a(g601
I292
I21
I00
tp626
a(g601
I292
I21
I00
tp627
a(g601
I292
I21
I00
tp628
a(g601
I292
I21
I00
tp629
a(g601
I292
I21
I00
tp630
a(g601
I292
I21
I00
tp631
asI25
(lp632
((I26
I25
I00
g469
tp633
I362
I26
I00
tp634
a(g633
I362
I26
I00
tp635
a(g633
I362
I26
I00
tp636
a(g633
I362
I26
I00
tp637
a(g633
I362
I26
I00
tp638
a(g633
I362
I26
I00
tp639
a(g633
I362
I26
I00
tp640
a(g633
I362
I26
I00
tp641
a(g633
I362
I26
I00
tp642
a(g633
I362
I26
I00
tp643
a(g633
I362
I26
I00
tp644
a(g633
I362
I26
I00
tp645
a(g633
I362
I26
I00
tp646
a(g633
I362
I26
I00
tp647
a(g633
I362
I26
I00
tp648
a(g633
I362
I26
I00
tp649
a(g633
I362
I26
I00
tp650
a(g633
I362
I26
I00
tp651
a(g633
I362
I26
I00
tp652
a(g633
I362
I26
I00
tp653
a(g633
I362
I26
I00
tp654
a(g633
I362
I26
I00
tp655
a(g633
I362
I26
I00
tp656
a(g633
I362
I26
I00
tp657
a(g633
I362
I26
I00
tp658
a(g633
I362
I26
I00
tp659
a(g633
I362
I26
I00
tp660
a(g633
I362
I26
I00
tp661
a(g633
I362
I26
I00
tp662
a(g633
I362
I26
I00
tp663
asI30
(lp664
((I26
I30
I00
g469
tp665
I432
I31
I00
tp666
a(g665
I432
I31
I00
tp667
a(g665
I432
I31
I00
tp668
a(g665
I432
I31
I00
tp669
a(g665
I432
I31
I00
tp670
a(g665
I432
I31
I00
tp671
a(g665
I432
I31
I00
tp672
a(g665
I432
I31
I00
tp673
a(g665
I432
I31
I00
tp674
a(g665
I432
I31
I00
tp675
a(g665
I432
I31
I00
tp676
a(g665
I432
I31
I00
tp677
a(g665
I432
I31
I00
tp678
a(g665
I432
I31
I00
tp679
a(g665
I432
I31
I00
tp680
a(g665
I432
I31
I00
tp681
a(g665
I432
I31
I00
tp682
a(g665
I432
I31
I00
tp683
a(g665
I432
I31
I00
tp684
a(g665
I432
I31
I00
tp685
a(g665
I432
I31
I00
tp686
a(g665
I432
I31
I00
tp687
a(g665
I432
I31
I00
tp688
a(g665
I432
I31
I00
tp689
a(g665
I432
I31
I00
tp690
a(g665
I432
I31
I00
tp691
a(g665
I432
I31
I00
tp692
a(g665
I432
I31
I00
tp693
a(g665
I432
I31
I00
tp694
a(g665
I432
I31
I00
tp695
asssg2
(g6
S'\x00\x00\x00\x00\x00\x00\xf8?'
p696
tp697
Rp698
(dp699
I26
(dp700
I35
(lp701
((I26
I35
I00
g698
tp702
I502
I36
I00
tp703
a(g702
I502
I36
I00
tp704
a(g702
I502
I36
I00
tp705
a(g702
I502
I36
I00
tp706
a(g702
I502
I36
I00
tp707
a(g702
I502
I36
I00
tp708
a(g702
I502
I36
I00
tp709
a(g702
I502
I36
I00
tp710
a(g702
I502
I36
I00
tp711
a(g702
I502
I36
I00
tp712
a(g702
I502
I36
I00
tp713
a(g702
I502
I36
I00
tp714
a(g702
I502
I36
I00
tp715
a(g702
I502
I36
I00
tp716
a(g702
I502
I36
I00
tp717
a(g702
I502
I36
I00
tp718
a(g702
I502
I36
I00
tp719
a(g702
I502
I36
I00
tp720
a(g702
I502
I36
I00
tp721
a(g702
I502
I36
I00
tp722
a(g702
I502
I36
I00
tp723
a(g702
I502
I36
I00
tp724
a(g702
I502
I36
I00
tp725
a(g702
I502
I36
I00
tp726
a(g702
I502
I36
I00
tp727
a(g702
I502
I36
I00
tp728
a(g702
I502
I36
I00
tp729
a(g702
I502
I36
I00
tp730
a(g702
I502
I36
I00
tp731
a(g702
I502
I36
I00
tp732
asI40
(lp733
((I26
I40
I00
g698
tp734
I572
I41
I00
tp735
a(g734
I572
I41
I00
tp736
a(g734
I572
I41
I00
tp737
a(g734
I572
I41
I00
tp738
a(g734
I572
I41
I00
tp739
a(g734
I572
I41
I00
tp740
a(g734
I572
I41
I00
tp741
a(g734
I572
I41
I00
tp742
a(g734
I572
I41
I00
tp743
a(g734
I572
I41
I00
tp744
a(g734
I572
I41
I00
tp745
a(g734
I572
I41
I00
tp746
a(g734
I572
I41
I00
tp747
a(g734
I572
I41
I00
tp748
a(g734
I572
I41
I00
tp749
a(g734
I572
I41
I00
tp750
a(g734
I572
I41
I00
tp751
a(g734
I572
I41
I00
tp752
a(g734
I572
I41
I00
tp753
a(g734
I572
I41
I00
tp754
a(g734
I572
I41
I00
tp755
a(g734
I572
I41
I00
tp756
a(g734
I572
I41
I00
tp757
a(g734
I572
I41
I00
tp758
a(g734
I572
I41
I00
tp759
a(g734
I572
I41
I00
tp760
a(g734
I572
I41
I00
tp761
a(g734
I572
I41
I00
tp762
a(g734
I572
I41
I00
tp763
a(g734
I572
I41
I00
tp764
asI10
(lp765
((I26
I10
I00
g698
tp766
I152
I11
I00
tp767
a(g766
I152
I11
I00
tp768
a(g766
I152
I11
I00
tp769
a(g766
I152
I11
I00
tp770
a(g766
I152
I11
I00
tp771
a(g766
I152
I11
I00
tp772
a(g766
I152
I11
I00
tp773
a(g766
I152
I11
I00
tp774
a(g766
I152
I11
I00
tp775
a(g766
I152
I11
I00
tp776
a(g766
I152
I11
I00
tp777
a(g766
I152
I11
I00
tp778
a(g766
I152
I11
I00
tp779
a(g766
I152
I11
I00
tp780
a(g766
I152
I11
I00
tp781
a(g766
I152
I11
I00
tp782
a(g766
I152
I11
I00
tp783
a(g766
I152
I11
I00
tp784
a(g766
I152
I11
I00
tp785
a(g766
I152
I11
I00
tp786
a(g766
I152
I11
I00
tp787
a(g766
I152
I11
I00
tp788
a(g766
I152
I11
I00
tp789
a(g766
I152
I11
I00
tp790
a(g766
I152
I11
I00
tp791
a(g766
I152
I11
I00
tp792
a(g766
I152
I11
I00
tp793
a(g766
I152
I11
I00
tp794
a(g766
I152
I11
I00
tp795
a(g766
I152
I11
I00
tp796
asI15
(lp797
((I26
I15
I00
g698
tp798
I222
I16
I00
tp799
a(g798
I222
I16
I00
tp800
a(g798
I222
I16
I00
tp801
a(g798
I222
I16
I00
tp802
a(g798
I222
I16
I00
tp803
a(g798
I222
I16
I00
tp804
a(g798
I222
I16
I00
tp805
a(g798
I222
I16
I00
tp806
a(g798
I222
I16
I00
tp807
a(g798
I222
I16
I00
tp808
a(g798
I222
I16
I00
tp809
a(g798
I222
I16
I00
tp810
a(g798
I222
I16
I00
tp811
a(g798
I222
I16
I00
tp812
a(g798
I222
I16
I00
tp813
a(g798
I222
I16
I00
tp814
a(g798
I222
I16
I00
tp815
a(g798
I222
I16
I00
tp816
a(g798
I222
I16
I00
tp817
a(g798
I222
I16
I00
tp818
a(g798
I222
I16
I00
tp819
a(g798
I222
I16
I00
tp820
a(g798
I222
I16
I00
tp821
a(g798
I222
I16
I00
tp822
a(g798
I222
I16
I00
tp823
a(g798
I222
I16
I00
tp824
a(g798
I222
I16
I00
tp825
a(g798
I222
I16
I00
tp826
a(g798
I222
I16
I00
tp827
a(g798
I222
I16
I00
tp828
asI20
(lp829
((I26
I20
I00
g698
tp830
I292
I21
I00
tp831
a(g830
I292
I21
I00
tp832
a(g830
I292
I21
I00
tp833
a(g830
I292
I21
I00
tp834
a(g830
I292
I21
I00
tp835
a(g830
I292
I21
I00
tp836
a(g830
I292
I21
I00
tp837
a(g830
I292
I21
I00
tp838
a(g830
I292
I21
I00
tp839
a(g830
I292
I21
I00
tp840
a(g830
I292
I21
I00
tp841
a(g830
I292
I21
I00
tp842
a(g830
I292
I21
I00
tp843
a(g830
I292
I21
I00
tp844
a(g830
I292
I21
I00
tp845
a(g830
I292
I21
I00
tp846
a(g830
I292
I21
I00
tp847
a(g830
I292
I21
I00
tp848
a(g830
I292
I21
I00
tp849
a(g830
I292
I21
I00
tp850
a(g830
I292
I21
I00
tp851
a(g830
I292
I21
I00
tp852
a(g830
I292
I21
I00
tp853
a(g830
I292
I21
I00
tp854
a(g830
I292
I21
I00
tp855
a(g830
I292
I21
I00
tp856
a(g830
I292
I21
I00
tp857
a(g830
I292
I21
I00
tp858
a(g830
I292
I21
I00
tp859
a(g830
I292
I21
I00
tp860
asI25
(lp861
((I26
I25
I00
g698
tp862
I362
I26
I00
tp863
a(g862
I362
I26
I00
tp864
a(g862
I362
I26
I00
tp865
a(g862
I362
I26
I00
tp866
a(g862
I362
I26
I00
tp867
a(g862
I362
I26
I00
tp868
a(g862
I362
I26
I00
tp869
a(g862
I362
I26
I00
tp870
a(g862
I362
I26
I00
tp871
a(g862
I362
I26
I00
tp872
a(g862
I362
I26
I00
tp873
a(g862
I362
I26
I00
tp874
a(g862
I362
I26
I00
tp875
a(g862
I362
I26
I00
tp876
a(g862
I362
I26
I00
tp877
a(g862
I362
I26
I00
tp878
a(g862
I362
I26
I00
tp879
a(g862
I362
I26
I00
tp880
a(g862
I362
I26
I00
tp881
a(g862
I362
I26
I00
tp882
a(g862
I362
I26
I00
tp883
a(g862
I362
I26
I00
tp884
a(g862
I362
I26
I00
tp885
a(g862
I362
I26
I00
tp886
a(g862
I362
I26
I00
tp887
a(g862
I362
I26
I00
tp888
a(g862
I362
I26
I00
tp889
a(g862
I362
I26
I00
tp890
a(g862
I362
I26
I00
tp891
a(g862
I362
I26
I00
tp892
asI30
(lp893
((I26
I30
I00
g698
tp894
I432
I31
I00
tp895
a(g894
I432
I31
I00
tp896
a(g894
I432
I31
I00
tp897
a(g894
I432
I31
I00
tp898
a(g894
I432
I31
I00
tp899
a(g894
I432
I31
I00
tp900
a(g894
I432
I31
I00
tp901
a(g894
I432
I31
I00
tp902
a(g894
I432
I31
I00
tp903
a(g894
I432
I31
I00
tp904
a(g894
I432
I31
I00
tp905
a(g894
I432
I31
I00
tp906
a(g894
I432
I31
I00
tp907
a(g894
I432
I31
I00
tp908
a(g894
I432
I31
I00
tp909
a(g894
I432
I31
I00
tp910
a(g894
I432
I31
I00
tp911
a(g894
I432
I31
I00
tp912
a(g894
I432
I31
I00
tp913
a(g894
I432
I31
I00
tp914
a(g894
I432
I31
I00
tp915
a(g894
I432
I31
I00
tp916
a(g894
I432
I31
I00
tp917
a(g894
I432
I31
I00
tp918
a(g894
I432
I31
I00
tp919
a(g894
I432
I31
I00
tp920
a(g894
I432
I31
I00
tp921
a(g894
I432
I31
I00
tp922
a(g894
I432
I31
I00
tp923
a(g894
I432
I31
I00
tp924
assssI01
(dp925
g2
(g6
S'\x00\x00\x00\x00\x00\x00\xe8?'
p926
tp927
Rp928
(dp929
I26
(dp930
I35
(lp931
((I26
I35
I01
g928
tp932
I254
I0
I01
tp933
a(g932
I3
I0
I01
tp934
a(g932
I0
I0
I01
tp935
a(g932
I2
I0
I01
tp936
a(g932
I699
I0
I01
tp937
a(g932
I6
I0
I01
tp938
a(g932
I699
I0
I01
tp939
a(g932
I1
I0
I01
tp940
a(g932
I699
I0
I01
tp941
a(g932
I0
I0
I01
tp942
a(g932
I3
I0
I01
tp943
a(g932
I3
I0
I01
tp944
a(g932
I0
I0
I01
tp945
a(g932
I0
I0
I01
tp946
a(g932
I3
I0
I01
tp947
a(g932
I0
I0
I01
tp948
a(g932
I1
I0
I01
tp949
a(g932
I0
I0
I01
tp950
a(g932
I699
I0
I01
tp951
a(g932
I252
I0
I01
tp952
a(g932
I699
I0
I01
tp953
a(g932
I2
I0
I01
tp954
a(g932
I1
I0
I01
tp955
a(g932
I4
I0
I01
tp956
a(g932
I2
I0
I01
tp957
a(g932
I2
I0
I01
tp958
a(g932
I5
I0
I01
tp959
a(g932
I257
I0
I01
tp960
a(g932
I6
I0
I01
tp961
a(g932
I6
I0
I01
tp962
asI40
(lp963
((I26
I40
I01
g928
tp964
I1
I0
I01
tp965
a(g964
I0
I0
I01
tp966
a(g964
I0
I0
I01
tp967
a(g964
I3
I0
I01
tp968
a(g964
I1
I0
I01
tp969
a(g964
I2
I0
I01
tp970
a(g964
I699
I0
I01
tp971
a(g964
I699
I0
I01
tp972
a(g964
I699
I0
I01
tp973
a(g964
I1
I0
I01
tp974
a(g964
I1
I0
I01
tp975
a(g964
I0
I0
I01
tp976
a(g964
I2
I0
I01
tp977
a(g964
I287
I0
I01
tp978
a(g964
I287
I0
I01
tp979
a(g964
I0
I0
I01
tp980
a(g964
I0
I0
I01
tp981
a(g964
I1
I0
I01
tp982
a(g964
I0
I0
I01
tp983
a(g964
I0
I0
I01
tp984
a(g964
I0
I0
I01
tp985
a(g964
I699
I0
I01
tp986
a(g964
I3
I0
I01
tp987
a(g964
I0
I0
I01
tp988
a(g964
I287
I0
I01
tp989
a(g964
I6
I0
I01
tp990
a(g964
I3
I0
I01
tp991
a(g964
I1
I0
I01
tp992
a(g964
I1
I0
I01
tp993
a(g964
I699
I0
I01
tp994
asI10
(lp995
((I26
I10
I01
g928
tp996
I3
I0
I01
tp997
a(g996
I3
I0
I01
tp998
a(g996
I1
I0
I01
tp999
a(g996
I1
I0
I01
tp1000
a(g996
I4
I0
I01
tp1001
a(g996
I2
I0
I01
tp1002
a(g996
I2
I0
I01
tp1003
a(g996
I699
I0
I01
tp1004
a(g996
I2
I0
I01
tp1005
a(g996
I2
I0
I01
tp1006
a(g996
I5
I0
I01
tp1007
a(g996
I699
I0
I01
tp1008
a(g996
I3
I0
I01
tp1009
a(g996
I3
I0
I01
tp1010
a(g996
I699
I0
I01
tp1011
a(g996
I3
I0
I01
tp1012
a(g996
I0
I0
I01
tp1013
a(g996
I4
I0
I01
tp1014
a(g996
I1
I0
I01
tp1015
a(g996
I3
I0
I01
tp1016
a(g996
I2
I0
I01
tp1017
a(g996
I0
I0
I01
tp1018
a(g996
I2
I0
I01
tp1019
a(g996
I0
I0
I01
tp1020
a(g996
I6
I0
I01
tp1021
a(g996
I7
I0
I01
tp1022
a(g996
I2
I0
I01
tp1023
a(g996
I2
I0
I01
tp1024
a(g996
I6
I0
I01
tp1025
a(g996
I1
I0
I01
tp1026
asI15
(lp1027
((I26
I15
I01
g928
tp1028
I2
I0
I01
tp1029
a(g1028
I4
I0
I01
tp1030
a(g1028
I112
I0
I01
tp1031
a(g1028
I2
I0
I01
tp1032
a(g1028
I1
I0
I01
tp1033
a(g1028
I0
I0
I01
tp1034
a(g1028
I5
I0
I01
tp1035
a(g1028
I2
I0
I01
tp1036
a(g1028
I3
I0
I01
tp1037
a(g1028
I699
I0
I01
tp1038
a(g1028
I4
I0
I01
tp1039
a(g1028
I0
I0
I01
tp1040
a(g1028
I6
I0
I01
tp1041
a(g1028
I6
I0
I01
tp1042
a(g1028
I7
I0
I01
tp1043
a(g1028
I112
I0
I01
tp1044
a(g1028
I2
I0
I01
tp1045
a(g1028
I112
I0
I01
tp1046
a(g1028
I4
I0
I01
tp1047
a(g1028
I4
I0
I01
tp1048
a(g1028
I3
I0
I01
tp1049
a(g1028
I0
I0
I01
tp1050
a(g1028
I112
I0
I01
tp1051
a(g1028
I6
I0
I01
tp1052
a(g1028
I2
I0
I01
tp1053
a(g1028
I2
I0
I01
tp1054
a(g1028
I0
I0
I01
tp1055
a(g1028
I112
I0
I01
tp1056
a(g1028
I0
I0
I01
tp1057
a(g1028
I112
I0
I01
tp1058
asI20
(lp1059
((I26
I20
I01
g928
tp1060
I147
I0
I01
tp1061
a(g1060
I146
I0
I01
tp1062
a(g1060
I0
I0
I01
tp1063
a(g1060
I0
I0
I01
tp1064
a(g1060
I4
I0
I01
tp1065
a(g1060
I1
I0
I01
tp1066
a(g1060
I1
I0
I01
tp1067
a(g1060
I699
I0
I01
tp1068
a(g1060
I699
I0
I01
tp1069
a(g1060
I0
I0
I01
tp1070
a(g1060
I0
I0
I01
tp1071
a(g1060
I0
I0
I01
tp1072
a(g1060
I4
I0
I01
tp1073
a(g1060
I0
I0
I01
tp1074
a(g1060
I2
I0
I01
tp1075
a(g1060
I0
I0
I01
tp1076
a(g1060
I699
I0
I01
tp1077
a(g1060
I0
I0
I01
tp1078
a(g1060
I1
I0
I01
tp1079
a(g1060
I3
I0
I01
tp1080
a(g1060
I2
I0
I01
tp1081
a(g1060
I699
I0
I01
tp1082
a(g1060
I0
I0
I01
tp1083
a(g1060
I6
I0
I01
tp1084
a(g1060
I1
I0
I01
tp1085
a(g1060
I0
I0
I01
tp1086
a(g1060
I6
I0
I01
tp1087
a(g1060
I1
I0
I01
tp1088
a(g1060
I699
I0
I01
tp1089
a(g1060
I147
I0
I01
tp1090
asI25
(lp1091
((I26
I25
I01
g928
tp1092
I3
I0
I01
tp1093
a(g1092
I3
I0
I01
tp1094
a(g1092
I4
I0
I01
tp1095
a(g1092
I2
I0
I01
tp1096
a(g1092
I4
I0
I01
tp1097
a(g1092
I3
I0
I01
tp1098
a(g1092
I2
I0
I01
tp1099
a(g1092
I0
I0
I01
tp1100
a(g1092
I3
I0
I01
tp1101
a(g1092
I4
I0
I01
tp1102
a(g1092
I7
I0
I01
tp1103
a(g1092
I8
I0
I01
tp1104
a(g1092
I2
I0
I01
tp1105
a(g1092
I1
I0
I01
tp1106
a(g1092
I1
I0
I01
tp1107
a(g1092
I3
I0
I01
tp1108
a(g1092
I1
I0
I01
tp1109
a(g1092
I699
I0
I01
tp1110
a(g1092
I699
I0
I01
tp1111
a(g1092
I6
I0
I01
tp1112
a(g1092
I2
I0
I01
tp1113
a(g1092
I3
I0
I01
tp1114
a(g1092
I3
I0
I01
tp1115
a(g1092
I0
I0
I01
tp1116
a(g1092
I1
I0
I01
tp1117
a(g1092
I3
I0
I01
tp1118
a(g1092
I699
I0
I01
tp1119
a(g1092
I699
I0
I01
tp1120
a(g1092
I2
I0
I01
tp1121
a(g1092
I6
I0
I01
tp1122
asI30
(lp1123
((I26
I30
I01
g928
tp1124
I699
I0
I01
tp1125
a(g1124
I0
I0
I01
tp1126
a(g1124
I0
I0
I01
tp1127
a(g1124
I1
I0
I01
tp1128
a(g1124
I1
I0
I01
tp1129
a(g1124
I0
I0
I01
tp1130
a(g1124
I0
I0
I01
tp1131
a(g1124
I4
I0
I01
tp1132
a(g1124
I0
I0
I01
tp1133
a(g1124
I1
I0
I01
tp1134
a(g1124
I1
I0
I01
tp1135
a(g1124
I0
I0
I01
tp1136
a(g1124
I7
I0
I01
tp1137
a(g1124
I4
I0
I01
tp1138
a(g1124
I1
I0
I01
tp1139
a(g1124
I699
I0
I01
tp1140
a(g1124
I1
I0
I01
tp1141
a(g1124
I0
I0
I01
tp1142
a(g1124
I0
I0
I01
tp1143
a(g1124
I1
I0
I01
tp1144
a(g1124
I5
I0
I01
tp1145
a(g1124
I0
I0
I01
tp1146
a(g1124
I4
I0
I01
tp1147
a(g1124
I699
I0
I01
tp1148
a(g1124
I1
I0
I01
tp1149
a(g1124
I1
I0
I01
tp1150
a(g1124
I1
I0
I01
tp1151
a(g1124
I0
I0
I01
tp1152
a(g1124
I0
I0
I01
tp1153
a(g1124
I6
I0
I01
tp1154
asssg2
(g6
S'\x00\x00\x00\x00\x00\x00\xf0?'
p1155
tp1156
Rp1157
(dp1158
I26
(dp1159
I35
(lp1160
((I26
I35
I01
g1157
tp1161
I502
I36
I00
tp1162
a(g1161
I502
I36
I00
tp1163
a(g1161
I502
I36
I00
tp1164
a(g1161
I502
I36
I00
tp1165
a(g1161
I502
I36
I00
tp1166
a(g1161
I502
I36
I00
tp1167
a(g1161
I502
I36
I00
tp1168
a(g1161
I502
I36
I00
tp1169
a(g1161
I502
I36
I00
tp1170
a(g1161
I502
I36
I00
tp1171
a(g1161
I502
I36
I00
tp1172
a(g1161
I502
I36
I00
tp1173
a(g1161
I502
I36
I00
tp1174
a(g1161
I502
I36
I00
tp1175
a(g1161
I502
I36
I00
tp1176
a(g1161
I502
I36
I00
tp1177
a(g1161
I502
I36
I00
tp1178
a(g1161
I502
I36
I00
tp1179
a(g1161
I502
I36
I00
tp1180
a(g1161
I502
I36
I00
tp1181
a(g1161
I502
I36
I00
tp1182
a(g1161
I502
I36
I00
tp1183
a(g1161
I502
I36
I00
tp1184
a(g1161
I502
I36
I00
tp1185
a(g1161
I502
I36
I00
tp1186
a(g1161
I502
I36
I00
tp1187
a(g1161
I502
I36
I00
tp1188
a(g1161
I502
I36
I00
tp1189
a(g1161
I502
I36
I00
tp1190
a(g1161
I502
I36
I00
tp1191
asI40
(lp1192
((I26
I40
I01
g1157
tp1193
I572
I41
I00
tp1194
a(g1193
I572
I41
I00
tp1195
a(g1193
I572
I41
I00
tp1196
a(g1193
I572
I41
I00
tp1197
a(g1193
I572
I41
I00
tp1198
a(g1193
I572
I41
I00
tp1199
a(g1193
I572
I41
I00
tp1200
a(g1193
I572
I41
I00
tp1201
a(g1193
I572
I41
I00
tp1202
a(g1193
I572
I41
I00
tp1203
a(g1193
I572
I41
I00
tp1204
a(g1193
I572
I41
I00
tp1205
a(g1193
I572
I41
I00
tp1206
a(g1193
I572
I41
I00
tp1207
a(g1193
I572
I41
I00
tp1208
a(g1193
I572
I41
I00
tp1209
a(g1193
I572
I41
I00
tp1210
a(g1193
I572
I41
I00
tp1211
a(g1193
I572
I41
I00
tp1212
a(g1193
I572
I41
I00
tp1213
a(g1193
I572
I41
I00
tp1214
a(g1193
I572
I41
I00
tp1215
a(g1193
I572
I41
I00
tp1216
a(g1193
I572
I41
I00
tp1217
a(g1193
I572
I41
I00
tp1218
a(g1193
I572
I41
I00
tp1219
a(g1193
I572
I41
I00
tp1220
a(g1193
I572
I41
I00
tp1221
a(g1193
I572
I41
I00
tp1222
a(g1193
I572
I41
I00
tp1223
asI10
(lp1224
((I26
I10
I01
g1157
tp1225
I152
I11
I00
tp1226
a(g1225
I152
I11
I00
tp1227
a(g1225
I152
I11
I00
tp1228
a(g1225
I152
I11
I00
tp1229
a(g1225
I152
I11
I00
tp1230
a(g1225
I152
I11
I00
tp1231
a(g1225
I152
I11
I00
tp1232
a(g1225
I152
I11
I00
tp1233
a(g1225
I152
I11
I00
tp1234
a(g1225
I152
I11
I00
tp1235
a(g1225
I152
I11
I00
tp1236
a(g1225
I152
I11
I00
tp1237
a(g1225
I152
I11
I00
tp1238
a(g1225
I152
I11
I00
tp1239
a(g1225
I152
I11
I00
tp1240
a(g1225
I152
I11
I00
tp1241
a(g1225
I152
I11
I00
tp1242
a(g1225
I152
I11
I00
tp1243
a(g1225
I152
I11
I00
tp1244
a(g1225
I152
I11
I00
tp1245
a(g1225
I152
I11
I00
tp1246
a(g1225
I152
I11
I00
tp1247
a(g1225
I152
I11
I00
tp1248
a(g1225
I152
I11
I00
tp1249
a(g1225
I152
I11
I00
tp1250
a(g1225
I152
I11
I00
tp1251
a(g1225
I152
I11
I00
tp1252
a(g1225
I152
I11
I00
tp1253
a(g1225
I152
I11
I00
tp1254
a(g1225
I152
I11
I00
tp1255
asI15
(lp1256
((I26
I15
I01
g1157
tp1257
I222
I16
I00
tp1258
a(g1257
I222
I16
I00
tp1259
a(g1257
I222
I16
I00
tp1260
a(g1257
I222
I16
I00
tp1261
a(g1257
I222
I16
I00
tp1262
a(g1257
I222
I16
I00
tp1263
a(g1257
I222
I16
I00
tp1264
a(g1257
I222
I16
I00
tp1265
a(g1257
I222
I16
I00
tp1266
a(g1257
I222
I16
I00
tp1267
a(g1257
I222
I16
I00
tp1268
a(g1257
I222
I16
I00
tp1269
a(g1257
I222
I16
I00
tp1270
a(g1257
I222
I16
I00
tp1271
a(g1257
I222
I16
I00
tp1272
a(g1257
I222
I16
I00
tp1273
a(g1257
I222
I16
I00
tp1274
a(g1257
I222
I16
I00
tp1275
a(g1257
I222
I16
I00
tp1276
a(g1257
I222
I16
I00
tp1277
a(g1257
I222
I16
I00
tp1278
a(g1257
I222
I16
I00
tp1279
a(g1257
I222
I16
I00
tp1280
a(g1257
I222
I16
I00
tp1281
a(g1257
I222
I16
I00
tp1282
a(g1257
I222
I16
I00
tp1283
a(g1257
I222
I16
I00
tp1284
a(g1257
I222
I16
I00
tp1285
a(g1257
I222
I16
I00
tp1286
a(g1257
I222
I16
I00
tp1287
asI20
(lp1288
((I26
I20
I01
g1157
tp1289
I292
I21
I00
tp1290
a(g1289
I292
I21
I00
tp1291
a(g1289
I292
I21
I00
tp1292
a(g1289
I292
I21
I00
tp1293
a(g1289
I292
I21
I00
tp1294
a(g1289
I292
I21
I00
tp1295
a(g1289
I292
I21
I00
tp1296
a(g1289
I292
I21
I00
tp1297
a(g1289
I292
I21
I00
tp1298
a(g1289
I292
I21
I00
tp1299
a(g1289
I292
I21
I00
tp1300
a(g1289
I292
I21
I00
tp1301
a(g1289
I292
I21
I00
tp1302
a(g1289
I292
I21
I00
tp1303
a(g1289
I292
I21
I00
tp1304
a(g1289
I292
I21
I00
tp1305
a(g1289
I292
I21
I00
tp1306
a(g1289
I292
I21
I00
tp1307
a(g1289
I292
I21
I00
tp1308
a(g1289
I292
I21
I00
tp1309
a(g1289
I292
I21
I00
tp1310
a(g1289
I292
I21
I00
tp1311
a(g1289
I292
I21
I00
tp1312
a(g1289
I292
I21
I00
tp1313
a(g1289
I292
I21
I00
tp1314
a(g1289
I292
I21
I00
tp1315
a(g1289
I292
I21
I00
tp1316
a(g1289
I292
I21
I00
tp1317
a(g1289
I292
I21
I00
tp1318
a(g1289
I292
I21
I00
tp1319
asI25
(lp1320
((I26
I25
I01
g1157
tp1321
I362
I26
I00
tp1322
a(g1321
I362
I26
I00
tp1323
a(g1321
I362
I26
I00
tp1324
a(g1321
I362
I26
I00
tp1325
a(g1321
I362
I26
I00
tp1326
a(g1321
I362
I26
I00
tp1327
a(g1321
I362
I26
I00
tp1328
a(g1321
I362
I26
I00
tp1329
a(g1321
I362
I26
I00
tp1330
a(g1321
I362
I26
I00
tp1331
a(g1321
I362
I26
I00
tp1332
a(g1321
I362
I26
I00
tp1333
a(g1321
I362
I26
I00
tp1334
a(g1321
I362
I26
I00
tp1335
a(g1321
I362
I26
I00
tp1336
a(g1321
I362
I26
I00
tp1337
a(g1321
I362
I26
I00
tp1338
a(g1321
I362
I26
I00
tp1339
a(g1321
I362
I26
I00
tp1340
a(g1321
I362
I26
I00
tp1341
a(g1321
I362
I26
I00
tp1342
a(g1321
I362
I26
I00
tp1343
a(g1321
I362
I26
I00
tp1344
a(g1321
I362
I26
I00
tp1345
a(g1321
I362
I26
I00
tp1346
a(g1321
I362
I26
I00
tp1347
a(g1321
I362
I26
I00
tp1348
a(g1321
I362
I26
I00
tp1349
a(g1321
I362
I26
I00
tp1350
a(g1321
I362
I26
I00
tp1351
asI30
(lp1352
((I26
I30
I01
g1157
tp1353
I432
I31
I00
tp1354
a(g1353
I432
I31
I00
tp1355
a(g1353
I432
I31
I00
tp1356
a(g1353
I432
I31
I00
tp1357
a(g1353
I432
I31
I00
tp1358
a(g1353
I432
I31
I00
tp1359
a(g1353
I432
I31
I00
tp1360
a(g1353
I432
I31
I00
tp1361
a(g1353
I432
I31
I00
tp1362
a(g1353
I432
I31
I00
tp1363
a(g1353
I432
I31
I00
tp1364
a(g1353
I432
I31
I00
tp1365
a(g1353
I432
I31
I00
tp1366
a(g1353
I432
I31
I00
tp1367
a(g1353
I432
I31
I00
tp1368
a(g1353
I432
I31
I00
tp1369
a(g1353
I432
I31
I00
tp1370
a(g1353
I432
I31
I00
tp1371
a(g1353
I432
I31
I00
tp1372
a(g1353
I432
I31
I00
tp1373
a(g1353
I432
I31
I00
tp1374
a(g1353
I432
I31
I00
tp1375
a(g1353
I432
I31
I00
tp1376
a(g1353
I432
I31
I00
tp1377
a(g1353
I432
I31
I00
tp1378
a(g1353
I432
I31
I00
tp1379
a(g1353
I432
I31
I00
tp1380
a(g1353
I432
I31
I00
tp1381
a(g1353
I432
I31
I00
tp1382
a(g1353
I432
I31
I00
tp1383
asssg2
(g6
S'\x00\x00\x00\x00\x00\x00\xf4?'
p1384
tp1385
Rp1386
(dp1387
I26
(dp1388
I35
(lp1389
((I26
I35
I01
g1386
tp1390
I502
I36
I00
tp1391
a(g1390
I502
I36
I00
tp1392
a(g1390
I502
I36
I00
tp1393
a(g1390
I502
I36
I00
tp1394
a(g1390
I502
I36
I00
tp1395
a(g1390
I502
I36
I00
tp1396
a(g1390
I502
I36
I00
tp1397
a(g1390
I502
I36
I00
tp1398
a(g1390
I502
I36
I00
tp1399
a(g1390
I502
I36
I00
tp1400
a(g1390
I502
I36
I00
tp1401
a(g1390
I502
I36
I00
tp1402
a(g1390
I502
I36
I00
tp1403
a(g1390
I502
I36
I00
tp1404
a(g1390
I502
I36
I00
tp1405
a(g1390
I502
I36
I00
tp1406
a(g1390
I502
I36
I00
tp1407
a(g1390
I502
I36
I00
tp1408
a(g1390
I502
I36
I00
tp1409
a(g1390
I502
I36
I00
tp1410
a(g1390
I502
I36
I00
tp1411
a(g1390
I502
I36
I00
tp1412
a(g1390
I502
I36
I00
tp1413
a(g1390
I502
I36
I00
tp1414
a(g1390
I502
I36
I00
tp1415
a(g1390
I502
I36
I00
tp1416
a(g1390
I502
I36
I00
tp1417
a(g1390
I502
I36
I00
tp1418
a(g1390
I502
I36
I00
tp1419
a(g1390
I502
I36
I00
tp1420
asI40
(lp1421
((I26
I40
I01
g1386
tp1422
I572
I41
I00
tp1423
a(g1422
I572
I41
I00
tp1424
a(g1422
I572
I41
I00
tp1425
a(g1422
I572
I41
I00
tp1426
a(g1422
I572
I41
I00
tp1427
a(g1422
I572
I41
I00
tp1428
a(g1422
I572
I41
I00
tp1429
a(g1422
I572
I41
I00
tp1430
a(g1422
I572
I41
I00
tp1431
a(g1422
I572
I41
I00
tp1432
a(g1422
I572
I41
I00
tp1433
a(g1422
I572
I41
I00
tp1434
a(g1422
I572
I41
I00
tp1435
a(g1422
I572
I41
I00
tp1436
a(g1422
I572
I41
I00
tp1437
a(g1422
I572
I41
I00
tp1438
a(g1422
I572
I41
I00
tp1439
a(g1422
I572
I41
I00
tp1440
a(g1422
I572
I41
I00
tp1441
a(g1422
I572
I41
I00
tp1442
a(g1422
I572
I41
I00
tp1443
a(g1422
I572
I41
I00
tp1444
a(g1422
I572
I41
I00
tp1445
a(g1422
I572
I41
I00
tp1446
a(g1422
I572
I41
I00
tp1447
a(g1422
I572
I41
I00
tp1448
a(g1422
I572
I41
I00
tp1449
a(g1422
I572
I41
I00
tp1450
a(g1422
I572
I41
I00
tp1451
a(g1422
I572
I41
I00
tp1452
asI10
(lp1453
((I26
I10
I01
g1386
tp1454
I152
I11
I00
tp1455
a(g1454
I152
I11
I00
tp1456
a(g1454
I152
I11
I00
tp1457
a(g1454
I152
I11
I00
tp1458
a(g1454
I152
I11
I00
tp1459
a(g1454
I152
I11
I00
tp1460
a(g1454
I152
I11
I00
tp1461
a(g1454
I152
I11
I00
tp1462
a(g1454
I152
I11
I00
tp1463
a(g1454
I152
I11
I00
tp1464
a(g1454
I152
I11
I00
tp1465
a(g1454
I152
I11
I00
tp1466
a(g1454
I152
I11
I00
tp1467
a(g1454
I152
I11
I00
tp1468
a(g1454
I152
I11
I00
tp1469
a(g1454
I152
I11
I00
tp1470
a(g1454
I152
I11
I00
tp1471
a(g1454
I152
I11
I00
tp1472
a(g1454
I152
I11
I00
tp1473
a(g1454
I152
I11
I00
tp1474
a(g1454
I152
I11
I00
tp1475
a(g1454
I152
I11
I00
tp1476
a(g1454
I152
I11
I00
tp1477
a(g1454
I152
I11
I00
tp1478
a(g1454
I152
I11
I00
tp1479
a(g1454
I152
I11
I00
tp1480
a(g1454
I152
I11
I00
tp1481
a(g1454
I152
I11
I00
tp1482
a(g1454
I152
I11
I00
tp1483
a(g1454
I152
I11
I00
tp1484
asI15
(lp1485
((I26
I15
I01
g1386
tp1486
I222
I16
I00
tp1487
a(g1486
I222
I16
I00
tp1488
a(g1486
I222
I16
I00
tp1489
a(g1486
I222
I16
I00
tp1490
a(g1486
I222
I16
I00
tp1491
a(g1486
I222
I16
I00
tp1492
a(g1486
I222
I16
I00
tp1493
a(g1486
I222
I16
I00
tp1494
a(g1486
I222
I16
I00
tp1495
a(g1486
I222
I16
I00
tp1496
a(g1486
I222
I16
I00
tp1497
a(g1486
I222
I16
I00
tp1498
a(g1486
I222
I16
I00
tp1499
a(g1486
I222
I16
I00
tp1500
a(g1486
I222
I16
I00
tp1501
a(g1486
I222
I16
I00
tp1502
a(g1486
I222
I16
I00
tp1503
a(g1486
I222
I16
I00
tp1504
a(g1486
I222
I16
I00
tp1505
a(g1486
I222
I16
I00
tp1506
a(g1486
I222
I16
I00
tp1507
a(g1486
I222
I16
I00
tp1508
a(g1486
I222
I16
I00
tp1509
a(g1486
I222
I16
I00
tp1510
a(g1486
I222
I16
I00
tp1511
a(g1486
I222
I16
I00
tp1512
a(g1486
I222
I16
I00
tp1513
a(g1486
I222
I16
I00
tp1514
a(g1486
I222
I16
I00
tp1515
a(g1486
I222
I16
I00
tp1516
asI20
(lp1517
((I26
I20
I01
g1386
tp1518
I292
I21
I00
tp1519
a(g1518
I292
I21
I00
tp1520
a(g1518
I292
I21
I00
tp1521
a(g1518
I292
I21
I00
tp1522
a(g1518
I292
I21
I00
tp1523
a(g1518
I292
I21
I00
tp1524
a(g1518
I292
I21
I00
tp1525
a(g1518
I292
I21
I00
tp1526
a(g1518
I292
I21
I00
tp1527
a(g1518
I292
I21
I00
tp1528
a(g1518
I292
I21
I00
tp1529
a(g1518
I292
I21
I00
tp1530
a(g1518
I292
I21
I00
tp1531
a(g1518
I292
I21
I00
tp1532
a(g1518
I292
I21
I00
tp1533
a(g1518
I292
I21
I00
tp1534
a(g1518
I292
I21
I00
tp1535
a(g1518
I292
I21
I00
tp1536
a(g1518
I292
I21
I00
tp1537
a(g1518
I292
I21
I00
tp1538
a(g1518
I292
I21
I00
tp1539
a(g1518
I292
I21
I00
tp1540
a(g1518
I292
I21
I00
tp1541
a(g1518
I292
I21
I00
tp1542
a(g1518
I292
I21
I00
tp1543
a(g1518
I292
I21
I00
tp1544
a(g1518
I292
I21
I00
tp1545
a(g1518
I292
I21
I00
tp1546
a(g1518
I292
I21
I00
tp1547
a(g1518
I292
I21
I00
tp1548
asI25
(lp1549
((I26
I25
I01
g1386
tp1550
I362
I26
I00
tp1551
a(g1550
I362
I26
I00
tp1552
a(g1550
I362
I26
I00
tp1553
a(g1550
I362
I26
I00
tp1554
a(g1550
I362
I26
I00
tp1555
a(g1550
I362
I26
I00
tp1556
a(g1550
I362
I26
I00
tp1557
a(g1550
I362
I26
I00
tp1558
a(g1550
I362
I26
I00
tp1559
a(g1550
I362
I26
I00
tp1560
a(g1550
I362
I26
I00
tp1561
a(g1550
I362
I26
I00
tp1562
a(g1550
I362
I26
I00
tp1563
a(g1550
I362
I26
I00
tp1564
a(g1550
I362
I26
I00
tp1565
a(g1550
I362
I26
I00
tp1566
a(g1550
I362
I26
I00
tp1567
a(g1550
I362
I26
I00
tp1568
a(g1550
I362
I26
I00
tp1569
a(g1550
I362
I26
I00
tp1570
a(g1550
I362
I26
I00
tp1571
a(g1550
I362
I26
I00
tp1572
a(g1550
I362
I26
I00
tp1573
a(g1550
I362
I26
I00
tp1574
a(g1550
I362
I26
I00
tp1575
a(g1550
I362
I26
I00
tp1576
a(g1550
I362
I26
I00
tp1577
a(g1550
I362
I26
I00
tp1578
a(g1550
I362
I26
I00
tp1579
a(g1550
I362
I26
I00
tp1580
asI30
(lp1581
((I26
I30
I01
g1386
tp1582
I432
I31
I00
tp1583
a(g1582
I432
I31
I00
tp1584
a(g1582
I432
I31
I00
tp1585
a(g1582
I432
I31
I00
tp1586
a(g1582
I432
I31
I00
tp1587
a(g1582
I432
I31
I00
tp1588
a(g1582
I432
I31
I00
tp1589
a(g1582
I432
I31
I00
tp1590
a(g1582
I432
I31
I00
tp1591
a(g1582
I432
I31
I00
tp1592
a(g1582
I432
I31
I00
tp1593
a(g1582
I432
I31
I00
tp1594
a(g1582
I432
I31
I00
tp1595
a(g1582
I432
I31
I00
tp1596
a(g1582
I432
I31
I00
tp1597
a(g1582
I432
I31
I00
tp1598
a(g1582
I432
I31
I00
tp1599
a(g1582
I432
I31
I00
tp1600
a(g1582
I432
I31
I00
tp1601
a(g1582
I432
I31
I00
tp1602
a(g1582
I432
I31
I00
tp1603
a(g1582
I432
I31
I00
tp1604
a(g1582
I432
I31
I00
tp1605
a(g1582
I432
I31
I00
tp1606
a(g1582
I432
I31
I00
tp1607
a(g1582
I432
I31
I00
tp1608
a(g1582
I432
I31
I00
tp1609
a(g1582
I432
I31
I00
tp1610
a(g1582
I432
I31
I00
tp1611
a(g1582
I432
I31
I00
tp1612
asssg2
(g6
S'\x00\x00\x00\x00\x00\x00\xf8?'
p1613
tp1614
Rp1615
(dp1616
I26
(dp1617
I35
(lp1618
((I26
I35
I01
g1615
tp1619
I502
I36
I00
tp1620
a(g1619
I502
I36
I00
tp1621
a(g1619
I502
I36
I00
tp1622
a(g1619
I502
I36
I00
tp1623
a(g1619
I502
I36
I00
tp1624
a(g1619
I502
I36
I00
tp1625
a(g1619
I502
I36
I00
tp1626
a(g1619
I502
I36
I00
tp1627
a(g1619
I502
I36
I00
tp1628
a(g1619
I502
I36
I00
tp1629
a(g1619
I502
I36
I00
tp1630
a(g1619
I502
I36
I00
tp1631
a(g1619
I502
I36
I00
tp1632
a(g1619
I502
I36
I00
tp1633
a(g1619
I502
I36
I00
tp1634
a(g1619
I502
I36
I00
tp1635
a(g1619
I502
I36
I00
tp1636
a(g1619
I502
I36
I00
tp1637
a(g1619
I502
I36
I00
tp1638
a(g1619
I502
I36
I00
tp1639
a(g1619
I502
I36
I00
tp1640
a(g1619
I502
I36
I00
tp1641
a(g1619
I502
I36
I00
tp1642
a(g1619
I502
I36
I00
tp1643
a(g1619
I502
I36
I00
tp1644
a(g1619
I502
I36
I00
tp1645
a(g1619
I502
I36
I00
tp1646
a(g1619
I502
I36
I00
tp1647
a(g1619
I502
I36
I00
tp1648
a(g1619
I502
I36
I00
tp1649
asI40
(lp1650
((I26
I40
I01
g1615
tp1651
I572
I41
I00
tp1652
a(g1651
I572
I41
I00
tp1653
a(g1651
I572
I41
I00
tp1654
a(g1651
I572
I41
I00
tp1655
a(g1651
I572
I41
I00
tp1656
a(g1651
I572
I41
I00
tp1657
a(g1651
I572
I41
I00
tp1658
a(g1651
I572
I41
I00
tp1659
a(g1651
I572
I41
I00
tp1660
a(g1651
I572
I41
I00
tp1661
a(g1651
I572
I41
I00
tp1662
a(g1651
I572
I41
I00
tp1663
a(g1651
I572
I41
I00
tp1664
a(g1651
I572
I41
I00
tp1665
a(g1651
I572
I41
I00
tp1666
a(g1651
I572
I41
I00
tp1667
a(g1651
I572
I41
I00
tp1668
a(g1651
I572
I41
I00
tp1669
a(g1651
I572
I41
I00
tp1670
a(g1651
I572
I41
I00
tp1671
a(g1651
I572
I41
I00
tp1672
a(g1651
I572
I41
I00
tp1673
a(g1651
I572
I41
I00
tp1674
a(g1651
I572
I41
I00
tp1675
a(g1651
I572
I41
I00
tp1676
a(g1651
I572
I41
I00
tp1677
a(g1651
I572
I41
I00
tp1678
a(g1651
I572
I41
I00
tp1679
a(g1651
I572
I41
I00
tp1680
a(g1651
I572
I41
I00
tp1681
asI10
(lp1682
((I26
I10
I01
g1615
tp1683
I152
I11
I00
tp1684
a(g1683
I152
I11
I00
tp1685
a(g1683
I152
I11
I00
tp1686
a(g1683
I152
I11
I00
tp1687
a(g1683
I152
I11
I00
tp1688
a(g1683
I152
I11
I00
tp1689
a(g1683
I152
I11
I00
tp1690
a(g1683
I152
I11
I00
tp1691
a(g1683
I152
I11
I00
tp1692
a(g1683
I152
I11
I00
tp1693
a(g1683
I152
I11
I00
tp1694
a(g1683
I152
I11
I00
tp1695
a(g1683
I152
I11
I00
tp1696
a(g1683
I152
I11
I00
tp1697
a(g1683
I152
I11
I00
tp1698
a(g1683
I152
I11
I00
tp1699
a(g1683
I152
I11
I00
tp1700
a(g1683
I152
I11
I00
tp1701
a(g1683
I152
I11
I00
tp1702
a(g1683
I152
I11
I00
tp1703
a(g1683
I152
I11
I00
tp1704
a(g1683
I152
I11
I00
tp1705
a(g1683
I152
I11
I00
tp1706
a(g1683
I152
I11
I00
tp1707
a(g1683
I152
I11
I00
tp1708
a(g1683
I152
I11
I00
tp1709
a(g1683
I152
I11
I00
tp1710
a(g1683
I152
I11
I00
tp1711
a(g1683
I152
I11
I00
tp1712
a(g1683
I152
I11
I00
tp1713
asI15
(lp1714
((I26
I15
I01
g1615
tp1715
I222
I16
I00
tp1716
a(g1715
I222
I16
I00
tp1717
a(g1715
I222
I16
I00
tp1718
a(g1715
I222
I16
I00
tp1719
a(g1715
I222
I16
I00
tp1720
a(g1715
I222
I16
I00
tp1721
a(g1715
I222
I16
I00
tp1722
a(g1715
I222
I16
I00
tp1723
a(g1715
I222
I16
I00
tp1724
a(g1715
I222
I16
I00
tp1725
a(g1715
I222
I16
I00
tp1726
a(g1715
I222
I16
I00
tp1727
a(g1715
I222
I16
I00
tp1728
a(g1715
I222
I16
I00
tp1729
a(g1715
I222
I16
I00
tp1730
a(g1715
I222
I16
I00
tp1731
a(g1715
I222
I16
I00
tp1732
a(g1715
I222
I16
I00
tp1733
a(g1715
I222
I16
I00
tp1734
a(g1715
I222
I16
I00
tp1735
a(g1715
I222
I16
I00
tp1736
a(g1715
I222
I16
I00
tp1737
a(g1715
I222
I16
I00
tp1738
a(g1715
I222
I16
I00
tp1739
a(g1715
I222
I16
I00
tp1740
a(g1715
I222
I16
I00
tp1741
a(g1715
I222
I16
I00
tp1742
a(g1715
I222
I16
I00
tp1743
a(g1715
I222
I16
I00
tp1744
a(g1715
I222
I16
I00
tp1745
asI20
(lp1746
((I26
I20
I01
g1615
tp1747
I292
I21
I00
tp1748
a(g1747
I292
I21
I00
tp1749
a(g1747
I292
I21
I00
tp1750
a(g1747
I292
I21
I00
tp1751
a(g1747
I292
I21
I00
tp1752
a(g1747
I292
I21
I00
tp1753
a(g1747
I292
I21
I00
tp1754
a(g1747
I292
I21
I00
tp1755
a(g1747
I292
I21
I00
tp1756
a(g1747
I292
I21
I00
tp1757
a(g1747
I292
I21
I00
tp1758
a(g1747
I292
I21
I00
tp1759
a(g1747
I292
I21
I00
tp1760
a(g1747
I292
I21
I00
tp1761
a(g1747
I292
I21
I00
tp1762
a(g1747
I292
I21
I00
tp1763
a(g1747
I292
I21
I00
tp1764
a(g1747
I292
I21
I00
tp1765
a(g1747
I292
I21
I00
tp1766
a(g1747
I292
I21
I00
tp1767
a(g1747
I292
I21
I00
tp1768
a(g1747
I292
I21
I00
tp1769
a(g1747
I292
I21
I00
tp1770
a(g1747
I292
I21
I00
tp1771
a(g1747
I292
I21
I00
tp1772
a(g1747
I292
I21
I00
tp1773
a(g1747
I292
I21
I00
tp1774
a(g1747
I292
I21
I00
tp1775
a(g1747
I292
I21
I00
tp1776
a(g1747
I292
I21
I00
tp1777
asI25
(lp1778
((I26
I25
I01
g1615
tp1779
I362
I26
I00
tp1780
a(g1779
I362
I26
I00
tp1781
a(g1779
I362
I26
I00
tp1782
a(g1779
I362
I26
I00
tp1783
a(g1779
I362
I26
I00
tp1784
a(g1779
I362
I26
I00
tp1785
a(g1779
I362
I26
I00
tp1786
a(g1779
I362
I26
I00
tp1787
a(g1779
I362
I26
I00
tp1788
a(g1779
I362
I26
I00
tp1789
a(g1779
I362
I26
I00
tp1790
a(g1779
I362
I26
I00
tp1791
a(g1779
I362
I26
I00
tp1792
a(g1779
I362
I26
I00
tp1793
a(g1779
I362
I26
I00
tp1794
a(g1779
I362
I26
I00
tp1795
a(g1779
I362
I26
I00
tp1796
a(g1779
I362
I26
I00
tp1797
a(g1779
I362
I26
I00
tp1798
a(g1779
I362
I26
I00
tp1799
a(g1779
I362
I26
I00
tp1800
a(g1779
I362
I26
I00
tp1801
a(g1779
I362
I26
I00
tp1802
a(g1779
I362
I26
I00
tp1803
a(g1779
I362
I26
I00
tp1804
a(g1779
I362
I26
I00
tp1805
a(g1779
I362
I26
I00
tp1806
a(g1779
I362
I26
I00
tp1807
a(g1779
I362
I26
I00
tp1808
a(g1779
I362
I26
I00
tp1809
asI30
(lp1810
((I26
I30
I01
g1615
tp1811
I432
I31
I00
tp1812
a(g1811
I432
I31
I00
tp1813
a(g1811
I432
I31
I00
tp1814
a(g1811
I432
I31
I00
tp1815
a(g1811
I432
I31
I00
tp1816
a(g1811
I432
I31
I00
tp1817
a(g1811
I432
I31
I00
tp1818
a(g1811
I432
I31
I00
tp1819
a(g1811
I432
I31
I00
tp1820
a(g1811
I432
I31
I00
tp1821
a(g1811
I432
I31
I00
tp1822
a(g1811
I432
I31
I00
tp1823
a(g1811
I432
I31
I00
tp1824
a(g1811
I432
I31
I00
tp1825
a(g1811
I432
I31
I00
tp1826
a(g1811
I432
I31
I00
tp1827
a(g1811
I432
I31
I00
tp1828
a(g1811
I432
I31
I00
tp1829
a(g1811
I432
I31
I00
tp1830
a(g1811
I432
I31
I00
tp1831
a(g1811
I432
I31
I00
tp1832
a(g1811
I432
I31
I00
tp1833
a(g1811
I432
I31
I00
tp1834
a(g1811
I432
I31
I00
tp1835
a(g1811
I432
I31
I00
tp1836
a(g1811
I432
I31
I00
tp1837
a(g1811
I432
I31
I00
tp1838
a(g1811
I432
I31
I00
tp1839
a(g1811
I432
I31
I00
tp1840
a(g1811
I432
I31
I00
tp1841
assss.